target datalayout = "e-m:e-p270:32:32-p271:32:32-p272:64:64-i64:64-i128:128-f80:128-n8:16:32:64-S128"
target triple = "x86_64-unknown-linux-gnu"

%"class.QuantLib::Null" = type { i8 }
%"struct.QuantLib::detail::percent_holder" = type { double }
%"class.std::ios_base" = type { ptr, i64, i64, i32, i32, i32, ptr, %"struct.std::ios_base::_Words", [8 x %"struct.std::ios_base::_Words"], i32, ptr, %"class.std::locale" }
%"struct.std::ios_base::_Words" = type { ptr, i64 }
%"class.std::locale" = type { ptr }

@.str.4 = private unnamed_addr constant [5 x i8] c"null\00", align 1
@.str.5 = private unnamed_addr constant [3 x i8] c" %\00", align 1

; Function Attrs: inlinehint mustprogress nounwind uwtable
define linkonce_odr noundef i32 @_ZStorSt12_Ios_IostateS_(i32 noundef %__a, i32 noundef %__b) #4 comdat {
entry:
  %__a.addr = alloca i32, align 4
  %__b.addr = alloca i32, align 4
  store i32 %__a, ptr %__a.addr, align 4, !tbaa !26
  store i32 %__b, ptr %__b.addr, align 4, !tbaa !26
  %0 = load i32, ptr %__a.addr, align 4, !tbaa !26
  %1 = load i32, ptr %__b.addr, align 4, !tbaa !26
  %or = or i32 %0, %1
  ret i32 %or
}

; Function Attrs: mustprogress nounwind uwtable
define available_externally noundef i32 @_ZNKSt9basic_iosIcSt11char_traitsIcEE7rdstateEv(ptr noundef nonnull align 8 dereferenceable(264) %this) #3 align 2 {
entry:
  %this.addr = alloca ptr, align 8
  store ptr %this, ptr %this.addr, align 8, !tbaa !3
  %this1 = load ptr, ptr %this.addr, align 8
  %_M_streambuf_state = getelementptr inbounds nuw %"class.std::ios_base", ptr %this1, i32 0, i32 5
  %0 = load i32, ptr %_M_streambuf_state, align 8, !tbaa !27
  ret i32 %0
}

; Function Attrs: mustprogress nounwind uwtable
define linkonce_odr noundef float @_ZNSt14numeric_limitsIfE3maxEv() #3 comdat align 2 {
entry:
  ret float 0x47EFFFFFE0000000
}

; Function Attrs: mustprogress nounwind uwtable
define linkonce_odr noundef i64 @_ZNSt11char_traitsIcE6lengthEPKc(ptr noundef %__s) #3 comdat align 2 {
entry:
  %__s.addr = alloca ptr, align 8
  store ptr %__s, ptr %__s.addr, align 8, !tbaa !3
  %0 = load ptr, ptr %__s.addr, align 8, !tbaa !3
  %call = call i64 @strlen(ptr noundef %0) #7
  ret i64 %call
}

; Function Attrs: mustprogress uwtable
define available_externally void @_ZNSt9basic_iosIcSt11char_traitsIcEE8setstateESt12_Ios_Iostate(ptr noundef nonnull align 8 dereferenceable(264) %this, i32 noundef %__state) #0 align 2 {
entry:
  %this.addr = alloca ptr, align 8
  %__state.addr = alloca i32, align 4
  store ptr %this, ptr %this.addr, align 8, !tbaa !3
  store i32 %__state, ptr %__state.addr, align 4, !tbaa !26
  %this1 = load ptr, ptr %this.addr, align 8
  %call = call noundef i32 @_ZNKSt9basic_iosIcSt11char_traitsIcEE7rdstateEv(ptr noundef nonnull align 8 dereferenceable(264) %this1)
  %0 = load i32, ptr %__state.addr, align 4, !tbaa !26
  %call2 = call noundef i32 @_ZStorSt12_Ios_IostateS_(i32 noundef %call, i32 noundef %0)
  call void @_ZNSt9basic_iosIcSt11char_traitsIcEE5clearESt12_Ios_Iostate(ptr noundef nonnull align 8 dereferenceable(264) %this1, i32 noundef %call2)
  ret void
}

; Function Attrs: mustprogress nounwind uwtable
define linkonce_odr noundef float @_ZN8QuantLib6detail17FloatingPointNullILb1EE9nullValueEv() #3 comdat align 2 {
entry:
  %call = call noundef float @_ZNSt14numeric_limitsIfE3maxEv() #7
  ret float %call
}

; Function Attrs: mustprogress nounwind uwtable
define linkonce_odr noundef i32 @_ZNSt8ios_base5flagsESt13_Ios_Fmtflags(ptr noundef nonnull align 8 dereferenceable(216) %this, i32 noundef %__fmtfl) #3 comdat align 2 {
entry:
  %this.addr = alloca ptr, align 8
  %__fmtfl.addr = alloca i32, align 4
  %__old = alloca i32, align 4
  store ptr %this, ptr %this.addr, align 8, !tbaa !3
  store i32 %__fmtfl, ptr %__fmtfl.addr, align 4, !tbaa !13
  %this1 = load ptr, ptr %this.addr, align 8
  call void @llvm.lifetime.start.p0(i64 4, ptr %__old) #7
  %_M_flags = getelementptr inbounds nuw %"class.std::ios_base", ptr %this1, i32 0, i32 3
  %0 = load i32, ptr %_M_flags, align 8, !tbaa !18
  store i32 %0, ptr %__old, align 4, !tbaa !13
  %1 = load i32, ptr %__fmtfl.addr, align 4, !tbaa !13
  %_M_flags2 = getelementptr inbounds nuw %"class.std::ios_base", ptr %this1, i32 0, i32 3
  store i32 %1, ptr %_M_flags2, align 8, !tbaa !18
  %2 = load i32, ptr %__old, align 4, !tbaa !13
  call void @llvm.lifetime.end.p0(i64 4, ptr %__old) #7
  ret i32 %2
}

; Function Attrs: mustprogress uwtable
define available_externally noundef nonnull align 8 dereferenceable(8) ptr @_ZNSolsEd(ptr noundef nonnull align 8 dereferenceable(8) %this, double noundef %__f) #0 align 2 {
entry:
  %this.addr = alloca ptr, align 8
  %__f.addr = alloca double, align 8
  store ptr %this, ptr %this.addr, align 8, !tbaa !3
  store double %__f, ptr %__f.addr, align 8, !tbaa !25
  %this1 = load ptr, ptr %this.addr, align 8
  %0 = load double, ptr %__f.addr, align 8, !tbaa !25
  %call = call noundef nonnull align 8 dereferenceable(8) ptr @_ZNSo9_M_insertIdEERSoT_(ptr noundef nonnull align 8 dereferenceable(8) %this1, double noundef %0)
  ret ptr %call
}

; Function Attrs: inlinehint mustprogress uwtable
define available_externally noundef nonnull align 8 dereferenceable(8) ptr @_ZStlsISt11char_traitsIcEERSt13basic_ostreamIcT_ES5_PKc(ptr noundef nonnull align 8 dereferenceable(8) %__out, ptr noundef %__s) #2 {
entry:
  %__out.addr = alloca ptr, align 8
  %__s.addr = alloca ptr, align 8
  store ptr %__out, ptr %__out.addr, align 8, !tbaa !3
  store ptr %__s, ptr %__s.addr, align 8, !tbaa !3
  %0 = load ptr, ptr %__s.addr, align 8, !tbaa !3
  %tobool = icmp ne ptr %0, null
  br i1 %tobool, label %if.else, label %if.then

if.then:                                          ; preds = %entry
  %1 = load ptr, ptr %__out.addr, align 8, !tbaa !3
  %vtable = load ptr, ptr %1, align 8, !tbaa !11
  %vbase.offset.ptr = getelementptr i8, ptr %vtable, i64 -24
  %vbase.offset = load i64, ptr %vbase.offset.ptr, align 8
  %add.ptr = getelementptr inbounds i8, ptr %1, i64 %vbase.offset
  call void @_ZNSt9basic_iosIcSt11char_traitsIcEE8setstateESt12_Ios_Iostate(ptr noundef nonnull align 8 dereferenceable(264) %add.ptr, i32 noundef 1)
  br label %if.end

if.else:                                          ; preds = %entry
  %2 = load ptr, ptr %__out.addr, align 8, !tbaa !3
  %3 = load ptr, ptr %__s.addr, align 8, !tbaa !3
  %4 = load ptr, ptr %__s.addr, align 8, !tbaa !3
  %call = call noundef i64 @_ZNSt11char_traitsIcE6lengthEPKc(ptr noundef %4)
  %call1 = call noundef nonnull align 8 dereferenceable(8) ptr @_ZSt16__ostream_insertIcSt11char_traitsIcEERSt13basic_ostreamIT_T0_ES6_PKS3_l(ptr noundef nonnull align 8 dereferenceable(8) %2, ptr noundef %3, i64 noundef %call)
  br label %if.end

if.end:                                           ; preds = %if.else, %if.then
  %5 = load ptr, ptr %__out.addr, align 8, !tbaa !3
  ret ptr %5
}

; Function Attrs: mustprogress uwtable
define linkonce_odr noundef double @_ZNK8QuantLib4NullIdEcvdEv(ptr noundef nonnull align 1 dereferenceable(1) %this) #0 comdat align 2 {
entry:
  %this.addr = alloca ptr, align 8
  store ptr %this, ptr %this.addr, align 8, !tbaa !3
  %call = call noundef float @_ZN8QuantLib6detail17FloatingPointNullILb1EE9nullValueEv()
  %conv = fpext float %call to double
  ret double %conv
}

; Function Attrs: mustprogress uwtable
define available_externally noundef nonnull align 8 dereferenceable(8) ptr @_ZNSolsEPFRSt8ios_baseS0_E(ptr noundef nonnull align 8 dereferenceable(8) %this, ptr noundef %__pf) #0 align 2 {
entry:
  %this.addr = alloca ptr, align 8
  %__pf.addr = alloca ptr, align 8
  store ptr %this, ptr %this.addr, align 8, !tbaa !3
  store ptr %__pf, ptr %__pf.addr, align 8, !tbaa !3
  %this1 = load ptr, ptr %this.addr, align 8
  %0 = load ptr, ptr %__pf.addr, align 8, !tbaa !3
  %vtable = load ptr, ptr %this1, align 8, !tbaa !11
  %vbase.offset.ptr = getelementptr i8, ptr %vtable, i64 -24
  %vbase.offset = load i64, ptr %vbase.offset.ptr, align 8
  %add.ptr = getelementptr inbounds i8, ptr %this1, i64 %vbase.offset
  %call = call noundef nonnull align 8 dereferenceable(216) ptr %0(ptr noundef nonnull align 8 dereferenceable(216) %add.ptr)
  ret ptr %this1
}

; Function Attrs: mustprogress nounwind uwtable
define linkonce_odr noundef i64 @_ZNSt8ios_base5widthEl(ptr noundef nonnull align 8 dereferenceable(216) %this, i64 noundef %__wide) #3 comdat align 2 {
entry:
  %this.addr = alloca ptr, align 8
  %__wide.addr = alloca i64, align 8
  %__old = alloca i64, align 8
  store ptr %this, ptr %this.addr, align 8, !tbaa !3
  store i64 %__wide, ptr %__wide.addr, align 8, !tbaa !10
  %this1 = load ptr, ptr %this.addr, align 8
  call void @llvm.lifetime.start.p0(i64 8, ptr %__old) #7
  %_M_width = getelementptr inbounds nuw %"class.std::ios_base", ptr %this1, i32 0, i32 2
  %0 = load i64, ptr %_M_width, align 8, !tbaa !24
  store i64 %0, ptr %__old, align 8, !tbaa !10
  %1 = load i64, ptr %__wide.addr, align 8, !tbaa !10
  %_M_width2 = getelementptr inbounds nuw %"class.std::ios_base", ptr %this1, i32 0, i32 2
  store i64 %1, ptr %_M_width2, align 8, !tbaa !24
  %2 = load i64, ptr %__old, align 8, !tbaa !10
  call void @llvm.lifetime.end.p0(i64 8, ptr %__old) #7
  ret i64 %2
}

; Function Attrs: mustprogress nounwind uwtable
define linkonce_odr noundef i64 @_ZNKSt8ios_base5widthEv(ptr noundef nonnull align 8 dereferenceable(216) %this) #3 comdat align 2 {
entry:
  %this.addr = alloca ptr, align 8
  store ptr %this, ptr %this.addr, align 8, !tbaa !3
  %this1 = load ptr, ptr %this.addr, align 8
  %_M_width = getelementptr inbounds nuw %"class.std::ios_base", ptr %this1, i32 0, i32 2
  %0 = load i64, ptr %_M_width, align 8, !tbaa !24
  ret i64 %0
}

; Function Attrs: mustprogress nounwind uwtable
define linkonce_odr noundef i32 @_ZNKSt8ios_base5flagsEv(ptr noundef nonnull align 8 dereferenceable(216) %this) #3 comdat align 2 {
entry:
  %this.addr = alloca ptr, align 8
  store ptr %this, ptr %this.addr, align 8, !tbaa !3
  %this1 = load ptr, ptr %this.addr, align 8
  %_M_flags = getelementptr inbounds nuw %"class.std::ios_base", ptr %this1, i32 0, i32 3
  %0 = load i32, ptr %_M_flags, align 8, !tbaa !18
  ret i32 %0
}

; Function Attrs: mustprogress uwtable
define noundef nonnull align 8 dereferenceable(8) ptr @_ZN8QuantLib6detaillsERSoRKNS0_14percent_holderE(ptr noundef nonnull align 8 dereferenceable(8) %out, ptr noundef nonnull align 8 dereferenceable(8) %holder) #0 {
entry:
  %out.addr = alloca ptr, align 8
  %holder.addr = alloca ptr, align 8
  %flags = alloca i32, align 4
  %width = alloca i64, align 8
  %ref.tmp = alloca %"class.QuantLib::Null", align 1
  store ptr %out, ptr %out.addr, align 8, !tbaa !3
  store ptr %holder, ptr %holder.addr, align 8, !tbaa !3
  call void @llvm.lifetime.start.p0(i64 4, ptr %flags) #7
  %0 = load ptr, ptr %out.addr, align 8, !tbaa !3
  %vtable = load ptr, ptr %0, align 8, !tbaa !11
  %vbase.offset.ptr = getelementptr i8, ptr %vtable, i64 -24
  %vbase.offset = load i64, ptr %vbase.offset.ptr, align 8
  %add.ptr = getelementptr inbounds i8, ptr %0, i64 %vbase.offset
  %call = call noundef i32 @_ZNKSt8ios_base5flagsEv(ptr noundef nonnull align 8 dereferenceable(216) %add.ptr)
  store i32 %call, ptr %flags, align 4, !tbaa !13
  call void @llvm.lifetime.start.p0(i64 8, ptr %width) #7
  %1 = load ptr, ptr %out.addr, align 8, !tbaa !3
  %vtable1 = load ptr, ptr %1, align 8, !tbaa !11
  %vbase.offset.ptr2 = getelementptr i8, ptr %vtable1, i64 -24
  %vbase.offset3 = load i64, ptr %vbase.offset.ptr2, align 8
  %add.ptr4 = getelementptr inbounds i8, ptr %1, i64 %vbase.offset3
  %call5 = call noundef i64 @_ZNKSt8ios_base5widthEv(ptr noundef nonnull align 8 dereferenceable(216) %add.ptr4)
  store i64 %call5, ptr %width, align 8, !tbaa !10
  %2 = load i64, ptr %width, align 8, !tbaa !10
  %cmp = icmp ugt i64 %2, 2
  br i1 %cmp, label %if.then, label %if.end

if.then:                                          ; preds = %entry
  %3 = load ptr, ptr %out.addr, align 8, !tbaa !3
  %vtable6 = load ptr, ptr %3, align 8, !tbaa !11
  %vbase.offset.ptr7 = getelementptr i8, ptr %vtable6, i64 -24
  %vbase.offset8 = load i64, ptr %vbase.offset.ptr7, align 8
  %add.ptr9 = getelementptr inbounds i8, ptr %3, i64 %vbase.offset8
  %4 = load i64, ptr %width, align 8, !tbaa !10
  %sub = sub i64 %4, 2
  %call10 = call noundef i64 @_ZNSt8ios_base5widthEl(ptr noundef nonnull align 8 dereferenceable(216) %add.ptr9, i64 noundef %sub)
  br label %if.end

if.end:                                           ; preds = %if.then, %entry
  %5 = load ptr, ptr %out.addr, align 8, !tbaa !3
  %call11 = call noundef nonnull align 8 dereferenceable(8) ptr @_ZNSolsEPFRSt8ios_baseS0_E(ptr noundef nonnull align 8 dereferenceable(8) %5, ptr noundef @_ZSt5fixedRSt8ios_base)
  %6 = load ptr, ptr %holder.addr, align 8, !tbaa !3
  %value = getelementptr inbounds nuw %"struct.QuantLib::detail::percent_holder", ptr %6, i32 0, i32 0
  %7 = load double, ptr %value, align 8, !tbaa !15
  call void @llvm.lifetime.start.p0(i64 1, ptr %ref.tmp) #7
  %call12 = call noundef double @_ZNK8QuantLib4NullIdEcvdEv(ptr noundef nonnull align 1 dereferenceable(1) %ref.tmp)
  %cmp13 = fcmp oeq double %7, %call12
  call void @llvm.lifetime.end.p0(i64 1, ptr %ref.tmp) #7
  br i1 %cmp13, label %if.then14, label %if.else

if.then14:                                        ; preds = %if.end
  %8 = load ptr, ptr %out.addr, align 8, !tbaa !3
  %call15 = call noundef nonnull align 8 dereferenceable(8) ptr @_ZStlsISt11char_traitsIcEERSt13basic_ostreamIcT_ES5_PKc(ptr noundef nonnull align 8 dereferenceable(8) %8, ptr noundef @.str.4)
  br label %if.end19

if.else:                                          ; preds = %if.end
  %9 = load ptr, ptr %out.addr, align 8, !tbaa !3
  %10 = load ptr, ptr %holder.addr, align 8, !tbaa !3
  %value16 = getelementptr inbounds nuw %"struct.QuantLib::detail::percent_holder", ptr %10, i32 0, i32 0
  %11 = load double, ptr %value16, align 8, !tbaa !15
  %mul = fmul double %11, 1.000000e+02
  %call17 = call noundef nonnull align 8 dereferenceable(8) ptr @_ZNSolsEd(ptr noundef nonnull align 8 dereferenceable(8) %9, double noundef %mul)
  %call18 = call noundef nonnull align 8 dereferenceable(8) ptr @_ZStlsISt11char_traitsIcEERSt13basic_ostreamIcT_ES5_PKc(ptr noundef nonnull align 8 dereferenceable(8) %call17, ptr noundef @.str.5)
  br label %if.end19

if.end19:                                         ; preds = %if.else, %if.then14
  %12 = load ptr, ptr %out.addr, align 8, !tbaa !3
  %vtable20 = load ptr, ptr %12, align 8, !tbaa !11
  %vbase.offset.ptr21 = getelementptr i8, ptr %vtable20, i64 -24
  %vbase.offset22 = load i64, ptr %vbase.offset.ptr21, align 8
  %add.ptr23 = getelementptr inbounds i8, ptr %12, i64 %vbase.offset22
  %13 = load i32, ptr %flags, align 4, !tbaa !13
  %call24 = call noundef i32 @_ZNSt8ios_base5flagsESt13_Ios_Fmtflags(ptr noundef nonnull align 8 dereferenceable(216) %add.ptr23, i32 noundef %13)
  %14 = load ptr, ptr %out.addr, align 8, !tbaa !3
  call void @llvm.lifetime.end.p0(i64 8, ptr %width) #7
  call void @llvm.lifetime.end.p0(i64 4, ptr %flags) #7
  ret ptr %14
}