; Function Attrs: mustprogress uwtable
define noundef nonnull align 8 dereferenceable(8) ptr @_ZN8QuantLib6detaillsERSoRKNS0_14percent_holderE(ptr noundef nonnull returned align 8 dereferenceable(8) %out, ptr nocapture noundef nonnull readonly align 8 dereferenceable(8) %holder) local_unnamed_addr #0 {
entry:
  %vtable = load ptr, ptr %out, align 8, !tbaa !8
  %vbase.offset.ptr = getelementptr i8, ptr %vtable, i64 -24
  %vbase.offset = load i64, ptr %vbase.offset.ptr, align 8
  %add.ptr = getelementptr inbounds i8, ptr %out, i64 %vbase.offset
  %_M_flags.i = getelementptr inbounds nuw i8, ptr %add.ptr, i64 24
  %0 = load i32, ptr %_M_flags.i, align 8, !tbaa !10
  %_M_width.i = getelementptr inbounds nuw i8, ptr %add.ptr, i64 16
  %1 = load i64, ptr %_M_width.i, align 8, !tbaa !12
  %cmp = icmp ugt i64 %1, 2
  br i1 %cmp, label %if.then, label %if.end

if.then:                                          ; preds = %entry
  %sub = add i64 %1, -2
  store i64 %sub, ptr %_M_width.i, align 8, !tbaa !12
  %vbase.offset.i.pre = load i64, ptr %vbase.offset.ptr, align 8
  %add.ptr.i.phi.trans.insert = getelementptr inbounds i8, ptr %out, i64 %vbase.offset.i.pre
  %_M_flags.i.i.phi.trans.insert = getelementptr inbounds nuw i8, ptr %add.ptr.i.phi.trans.insert, i64 24
  %.pre = load i32, ptr %_M_flags.i.i.phi.trans.insert, align 8, !tbaa !10
  br label %if.end

if.end:                                           ; preds = %if.then, %entry
  %2 = phi i32 [ %.pre, %if.then ], [ %0, %entry ]
  %vbase.offset.i = phi i64 [ %vbase.offset.i.pre, %if.then ], [ %vbase.offset, %entry ]
  %add.ptr.i = getelementptr inbounds i8, ptr %out, i64 %vbase.offset.i
  %_M_flags.i.i = getelementptr inbounds nuw i8, ptr %add.ptr.i, i64 24
  %and.i.i.i.i = and i32 %2, -261
  %or.i.i.i.i = or disjoint i32 %and.i.i.i.i, 4
  store i32 %or.i.i.i.i, ptr %_M_flags.i.i, align 4, !tbaa !10
  %3 = load double, ptr %holder, align 8, !tbaa !19
  %cmp13 = fcmp oeq double %3, 0x47EFFFFFE0000000
  br i1 %cmp13, label %if.then14, label %if.else

if.then14:                                        ; preds = %if.end
  %call1.i = tail call noundef nonnull align 8 dereferenceable(8) ptr @_ZSt16__ostream_insertIcSt11char_traitsIcEERSt13basic_ostreamIT_T0_ES6_PKS3_l(ptr noundef nonnull align 8 dereferenceable(8) %out, ptr noundef nonnull @.str.4, i64 noundef 4)
  br label %if.end19

if.else:                                          ; preds = %if.end
  %mul = fmul double %3, 1.000000e+02
  %call.i11 = tail call noundef nonnull align 8 dereferenceable(8) ptr @_ZNSo9_M_insertIdEERSoT_(ptr noundef nonnull align 8 dereferenceable(8) %out, double noundef %mul)
  %call1.i13 = tail call noundef nonnull align 8 dereferenceable(8) ptr @_ZSt16__ostream_insertIcSt11char_traitsIcEERSt13basic_ostreamIT_T0_ES6_PKS3_l(ptr noundef nonnull align 8 dereferenceable(8) %call.i11, ptr noundef nonnull @.str.5, i64 noundef 2)
  br label %if.end19

if.end19:                                         ; preds = %if.else, %if.then14
  %vtable20 = load ptr, ptr %out, align 8, !tbaa !8
  %vbase.offset.ptr21 = getelementptr i8, ptr %vtable20, i64 -24
  %vbase.offset22 = load i64, ptr %vbase.offset.ptr21, align 8
  %add.ptr23 = getelementptr inbounds i8, ptr %out, i64 %vbase.offset22
  %_M_flags.i14 = getelementptr inbounds nuw i8, ptr %add.ptr23, i64 24
  store i32 %0, ptr %_M_flags.i14, align 8, !tbaa !22
  ret ptr %out
}